target datalayout = "e-m:e-p270:32:32-p271:32:32-p272:64:64-i64:64-i128:128-f80:128-n8:16:32:64-S128"
target triple = "x86_64-unknown-linux-gnu"

%"struct.struct_pb::UnknownFields" = type { %"class.std::vector" }
%"class.std::vector" = type { %"struct.std::_Vector_base" }
%"struct.std::_Vector_base" = type { %"struct.std::_Vector_base<struct_pb::UnknownFields::Field, std::allocator<struct_pb::UnknownFields::Field>>::_Vector_impl" }
%"struct.std::_Vector_base<struct_pb::UnknownFields::Field, std::allocator<struct_pb::UnknownFields::Field>>::_Vector_impl" = type { %"struct.std::_Vector_base<struct_pb::UnknownFields::Field, std::allocator<struct_pb::UnknownFields::Field>>::_Vector_impl_data" }
%"struct.std::_Vector_base<struct_pb::UnknownFields::Field, std::allocator<struct_pb::UnknownFields::Field>>::_Vector_impl_data" = type { ptr, ptr, ptr }
%"class.__gnu_cxx::__normal_iterator.465" = type { ptr }
%"struct.struct_pb::UnknownFields::Field" = type { ptr, i64 }
%"struct.protobuf_test_messages::proto3::ForeignMessage" = type { i32 }

; Function Attrs: mustprogress nounwind uwtable
define linkonce_odr dso_local noundef nonnull align 8 dereferenceable(8) ptr @_ZNK9__gnu_cxx17__normal_iteratorIPKN9struct_pb13UnknownFields5FieldESt6vectorIS3_SaIS3_EEE4baseEv(ptr noundef nonnull align 8 dereferenceable(8) %this) #1 comdat align 2 {
entry:
  %this.addr = alloca ptr, align 8
  store ptr %this, ptr %this.addr, align 8
  %this1 = load ptr, ptr %this.addr, align 8
  %_M_current = getelementptr inbounds %"class.__gnu_cxx::__normal_iterator.465", ptr %this1, i32 0, i32 0
  ret ptr %_M_current
}

; Function Attrs: mustprogress nounwind uwtable
define linkonce_odr dso_local void @_ZN9__gnu_cxx17__normal_iteratorIPKN9struct_pb13UnknownFields5FieldESt6vectorIS3_SaIS3_EEEC2ERKS5_(ptr noundef nonnull align 8 dereferenceable(8) %this, ptr noundef nonnull align 8 dereferenceable(8) %__i) unnamed_addr #1 comdat align 2 {
entry:
  %this.addr = alloca ptr, align 8
  %__i.addr = alloca ptr, align 8
  store ptr %this, ptr %this.addr, align 8
  store ptr %__i, ptr %__i.addr, align 8
  %this1 = load ptr, ptr %this.addr, align 8
  %_M_current = getelementptr inbounds %"class.__gnu_cxx::__normal_iterator.465", ptr %this1, i32 0, i32 0
  %0 = load ptr, ptr %__i.addr, align 8
  %1 = load ptr, ptr %0, align 8
  store ptr %1, ptr %_M_current, align 8
  ret void
}

; Function Attrs: mustprogress nounwind uwtable
define linkonce_odr dso_local noundef nonnull align 8 dereferenceable(8) ptr @_ZN9__gnu_cxx17__normal_iteratorIPKN9struct_pb13UnknownFields5FieldESt6vectorIS3_SaIS3_EEEppEv(ptr noundef nonnull align 8 dereferenceable(8) %this) #1 comdat align 2 {
entry:
  %this.addr = alloca ptr, align 8
  store ptr %this, ptr %this.addr, align 8
  %this1 = load ptr, ptr %this.addr, align 8
  %_M_current = getelementptr inbounds %"class.__gnu_cxx::__normal_iterator.465", ptr %this1, i32 0, i32 0
  %0 = load ptr, ptr %_M_current, align 8
  %incdec.ptr = getelementptr inbounds %"struct.struct_pb::UnknownFields::Field", ptr %0, i32 1
  store ptr %incdec.ptr, ptr %_M_current, align 8
  ret ptr %this1
}

; Function Attrs: mustprogress nounwind uwtable
define linkonce_odr dso_local noundef nonnull align 8 dereferenceable(16) ptr @_ZNK9__gnu_cxx17__normal_iteratorIPKN9struct_pb13UnknownFields5FieldESt6vectorIS3_SaIS3_EEEdeEv(ptr noundef nonnull align 8 dereferenceable(8) %this) #1 comdat align 2 {
entry:
  %this.addr = alloca ptr, align 8
  store ptr %this, ptr %this.addr, align 8
  %this1 = load ptr, ptr %this.addr, align 8
  %_M_current = getelementptr inbounds %"class.__gnu_cxx::__normal_iterator.465", ptr %this1, i32 0, i32 0
  %0 = load ptr, ptr %_M_current, align 8
  ret ptr %0
}

; Function Attrs: mustprogress nounwind uwtable
define linkonce_odr dso_local noundef zeroext i1 @_ZN9__gnu_cxxeqIPKN9struct_pb13UnknownFields5FieldESt6vectorIS3_SaIS3_EEEEbRKNS_17__normal_iteratorIT_T0_EESE_QrqXeqcldtfp_4baseEcldtfp0_4baseERSt14convertible_toIbEE(ptr noundef nonnull align 8 dereferenceable(8) %__lhs, ptr noundef nonnull align 8 dereferenceable(8) %__rhs) #1 comdat {
entry:
  %__lhs.addr = alloca ptr, align 8
  %__rhs.addr = alloca ptr, align 8
  store ptr %__lhs, ptr %__lhs.addr, align 8
  store ptr %__rhs, ptr %__rhs.addr, align 8
  %0 = load ptr, ptr %__lhs.addr, align 8
  %call = call noundef nonnull align 8 dereferenceable(8) ptr @_ZNK9__gnu_cxx17__normal_iteratorIPKN9struct_pb13UnknownFields5FieldESt6vectorIS3_SaIS3_EEE4baseEv(ptr noundef nonnull align 8 dereferenceable(8) %0) #11
  %1 = load ptr, ptr %call, align 8
  %2 = load ptr, ptr %__rhs.addr, align 8
  %call1 = call noundef nonnull align 8 dereferenceable(8) ptr @_ZNK9__gnu_cxx17__normal_iteratorIPKN9struct_pb13UnknownFields5FieldESt6vectorIS3_SaIS3_EEE4baseEv(ptr noundef nonnull align 8 dereferenceable(8) %2) #11
  %3 = load ptr, ptr %call1, align 8
  %cmp = icmp eq ptr %1, %3
  ret i1 %cmp
}

; Function Attrs: mustprogress nounwind uwtable
define linkonce_odr dso_local ptr @_ZNKSt6vectorIN9struct_pb13UnknownFields5FieldESaIS2_EE3endEv(ptr noundef nonnull align 8 dereferenceable(24) %this) #1 comdat align 2 {
entry:
  %retval = alloca %"class.__gnu_cxx::__normal_iterator.465", align 8
  %this.addr = alloca ptr, align 8
  store ptr %this, ptr %this.addr, align 8
  %this1 = load ptr, ptr %this.addr, align 8
  %_M_impl = getelementptr inbounds %"struct.std::_Vector_base", ptr %this1, i32 0, i32 0
  %_M_finish = getelementptr inbounds %"struct.std::_Vector_base<struct_pb::UnknownFields::Field, std::allocator<struct_pb::UnknownFields::Field>>::_Vector_impl_data", ptr %_M_impl, i32 0, i32 1
  call void @_ZN9__gnu_cxx17__normal_iteratorIPKN9struct_pb13UnknownFields5FieldESt6vectorIS3_SaIS3_EEEC2ERKS5_(ptr noundef nonnull align 8 dereferenceable(8) %retval, ptr noundef nonnull align 8 dereferenceable(8) %_M_finish) #11
  %coerce.dive = getelementptr inbounds %"class.__gnu_cxx::__normal_iterator.465", ptr %retval, i32 0, i32 0
  %0 = load ptr, ptr %coerce.dive, align 8
  ret ptr %0
}

; Function Attrs: mustprogress nounwind uwtable
define linkonce_odr dso_local ptr @_ZNKSt6vectorIN9struct_pb13UnknownFields5FieldESaIS2_EE5beginEv(ptr noundef nonnull align 8 dereferenceable(24) %this) #1 comdat align 2 {
entry:
  %retval = alloca %"class.__gnu_cxx::__normal_iterator.465", align 8
  %this.addr = alloca ptr, align 8
  store ptr %this, ptr %this.addr, align 8
  %this1 = load ptr, ptr %this.addr, align 8
  %_M_impl = getelementptr inbounds %"struct.std::_Vector_base", ptr %this1, i32 0, i32 0
  %_M_start = getelementptr inbounds %"struct.std::_Vector_base<struct_pb::UnknownFields::Field, std::allocator<struct_pb::UnknownFields::Field>>::_Vector_impl_data", ptr %_M_impl, i32 0, i32 0
  call void @_ZN9__gnu_cxx17__normal_iteratorIPKN9struct_pb13UnknownFields5FieldESt6vectorIS3_SaIS3_EEEC2ERKS5_(ptr noundef nonnull align 8 dereferenceable(8) %retval, ptr noundef nonnull align 8 dereferenceable(8) %_M_start) #11
  %coerce.dive = getelementptr inbounds %"class.__gnu_cxx::__normal_iterator.465", ptr %retval, i32 0, i32 0
  %0 = load ptr, ptr %coerce.dive, align 8
  ret ptr %0
}

; Function Attrs: mustprogress nounwind uwtable
define linkonce_odr dso_local noundef i64 @_ZNK9struct_pb13UnknownFields10total_sizeEv(ptr noundef nonnull align 8 dereferenceable(24) %this) #1 comdat align 2 {
entry:
  %this.addr = alloca ptr, align 8
  %total = alloca i64, align 8
  %__range2 = alloca ptr, align 8
  %__begin2 = alloca %"class.__gnu_cxx::__normal_iterator.465", align 8
  %__end2 = alloca %"class.__gnu_cxx::__normal_iterator.465", align 8
  %f = alloca ptr, align 8
  store ptr %this, ptr %this.addr, align 8
  %this1 = load ptr, ptr %this.addr, align 8
  store i64 0, ptr %total, align 8
  %fields = getelementptr inbounds %"struct.struct_pb::UnknownFields", ptr %this1, i32 0, i32 0
  store ptr %fields, ptr %__range2, align 8
  %0 = load ptr, ptr %__range2, align 8
  %call = call ptr @_ZNKSt6vectorIN9struct_pb13UnknownFields5FieldESaIS2_EE5beginEv(ptr noundef nonnull align 8 dereferenceable(24) %0) #11
  %coerce.dive = getelementptr inbounds %"class.__gnu_cxx::__normal_iterator.465", ptr %__begin2, i32 0, i32 0
  store ptr %call, ptr %coerce.dive, align 8
  %1 = load ptr, ptr %__range2, align 8
  %call2 = call ptr @_ZNKSt6vectorIN9struct_pb13UnknownFields5FieldESaIS2_EE3endEv(ptr noundef nonnull align 8 dereferenceable(24) %1) #11
  %coerce.dive3 = getelementptr inbounds %"class.__gnu_cxx::__normal_iterator.465", ptr %__end2, i32 0, i32 0
  store ptr %call2, ptr %coerce.dive3, align 8
  br label %for.cond

for.cond:                                         ; preds = %for.inc, %entry
  %call4 = call noundef zeroext i1 @_ZN9__gnu_cxxeqIPKN9struct_pb13UnknownFields5FieldESt6vectorIS3_SaIS3_EEEEbRKNS_17__normal_iteratorIT_T0_EESE_QrqXeqcldtfp_4baseEcldtfp0_4baseERSt14convertible_toIbEE(ptr noundef nonnull align 8 dereferenceable(8) %__begin2, ptr noundef nonnull align 8 dereferenceable(8) %__end2) #11
  %lnot = xor i1 %call4, true
  br i1 %lnot, label %for.body, label %for.end

for.body:                                         ; preds = %for.cond
  %call5 = call noundef nonnull align 8 dereferenceable(16) ptr @_ZNK9__gnu_cxx17__normal_iteratorIPKN9struct_pb13UnknownFields5FieldESt6vectorIS3_SaIS3_EEEdeEv(ptr noundef nonnull align 8 dereferenceable(8) %__begin2) #11
  store ptr %call5, ptr %f, align 8
  %2 = load ptr, ptr %f, align 8
  %len = getelementptr inbounds %"struct.struct_pb::UnknownFields::Field", ptr %2, i32 0, i32 1
  %3 = load i64, ptr %len, align 8
  %4 = load i64, ptr %total, align 8
  %add = add i64 %4, %3
  store i64 %add, ptr %total, align 8
  br label %for.inc

for.inc:                                          ; preds = %for.body
  %call6 = call noundef nonnull align 8 dereferenceable(8) ptr @_ZN9__gnu_cxx17__normal_iteratorIPKN9struct_pb13UnknownFields5FieldESt6vectorIS3_SaIS3_EEEppEv(ptr noundef nonnull align 8 dereferenceable(8) %__begin2) #11
  br label %for.cond

for.end:                                          ; preds = %for.cond
  %5 = load i64, ptr %total, align 8
  ret i64 %5
}

; Function Attrs: mustprogress uwtable
define dso_local noundef i64 @_ZN9struct_pb8internal15get_needed_sizeIN22protobuf_test_messages6proto314ForeignMessageEEEmRKT_RKNS_13UnknownFieldsE(ptr noundef nonnull align 4 dereferenceable(4) %t, ptr noundef nonnull align 8 dereferenceable(24) %unknown_fields) #0 {
entry:
  %v.addr.i = alloca i64, align 8
  %ret.i = alloca i64, align 8
  %t.addr = alloca ptr, align 8
  %unknown_fields.addr = alloca ptr, align 8
  %total = alloca i64, align 8
  store ptr %t, ptr %t.addr, align 8
  store ptr %unknown_fields, ptr %unknown_fields.addr, align 8
  %0 = load ptr, ptr %unknown_fields.addr, align 8
  %call = call noundef i64 @_ZNK9struct_pb13UnknownFields10total_sizeEv(ptr noundef nonnull align 8 dereferenceable(24) %0)
  store i64 %call, ptr %total, align 8
  %1 = load ptr, ptr %t.addr, align 8
  %c = getelementptr inbounds %"struct.protobuf_test_messages::proto3::ForeignMessage", ptr %1, i32 0, i32 0
  %2 = load i32, ptr %c, align 4
  %cmp = icmp ne i32 %2, 0
  br i1 %cmp, label %if.then, label %if.end

if.then:                                          ; preds = %entry
  %3 = load ptr, ptr %t.addr, align 8
  %c1 = getelementptr inbounds %"struct.protobuf_test_messages::proto3::ForeignMessage", ptr %3, i32 0, i32 0
  %4 = load i32, ptr %c1, align 4
  %conv = sext i32 %4 to i64
  store i64 %conv, ptr %v.addr.i, align 8
  store i64 0, ptr %ret.i, align 8
  br label %do.body.i

do.body.i:                                        ; preds = %do.body.i, %if.then
  %5 = load i64, ptr %ret.i, align 8
  %inc.i = add i64 %5, 1
  store i64 %inc.i, ptr %ret.i, align 8
  %6 = load i64, ptr %v.addr.i, align 8
  %shr.i = lshr i64 %6, 7
  store i64 %shr.i, ptr %v.addr.i, align 8
  %7 = load i64, ptr %v.addr.i, align 8
  %cmp.i = icmp ne i64 %7, 0
  br i1 %cmp.i, label %do.body.i, label %_ZN9struct_pb8internal21calculate_varint_sizeEm.exit, !llvm.loop !5

_ZN9struct_pb8internal21calculate_varint_sizeEm.exit: ; preds = %do.body.i
  %8 = load i64, ptr %ret.i, align 8
  %add = add i64 1, %8
  %9 = load i64, ptr %total, align 8
  %add3 = add i64 %9, %add
  store i64 %add3, ptr %total, align 8
  br label %if.end

if.end:                                           ; preds = %_ZN9struct_pb8internal21calculate_varint_sizeEm.exit, %entry
  %10 = load i64, ptr %total, align 8
  ret i64 %10
}